; ModuleID = '19/712.c'
source_filename = "19/712.c"
target datalayout = "e-m:e-p270:32:32-p271:32:32-p272:64:64-i64:64-f80:128-n8:16:32:64-S128"
target triple = "x86_64-pc-linux-gnu"

@.str = private unnamed_addr constant [3 x i8] c"%s\00", align 1
@.str.1 = private unnamed_addr constant [4 x i8] c" %s\00", align 1
@.str.2 = private unnamed_addr constant [3 x i8] c"%c\00", align 1

; Function Attrs: noinline nounwind uwtable
define dso_local i32 @main() #0 {
  %1 = alloca i32, align 4
  %2 = alloca i32, align 4
  %3 = alloca i32, align 4
  %4 = alloca i32, align 4
  %5 = alloca i32, align 4
  %6 = alloca [100 x i8], align 16
  %7 = alloca [100 x i8], align 16
  %8 = alloca [100 x i8], align 16
  store i32 0, i32* %1, align 4
  %9 = getelementptr inbounds [100 x i8], [100 x i8]* %6, i64 0, i64 0
  %10 = call i32 (i8*, ...) bitcast (i32 (...)* @gets to i32 (i8*, ...)*)(i8* %9)
  %11 = getelementptr inbounds [100 x i8], [100 x i8]* %7, i64 0, i64 0
  %12 = call i32 (i8*, ...) bitcast (i32 (...)* @gets to i32 (i8*, ...)*)(i8* %11)
  %13 = getelementptr inbounds [100 x i8], [100 x i8]* %8, i64 0, i64 0
  %14 = call i32 (i8*, ...) bitcast (i32 (...)* @gets to i32 (i8*, ...)*)(i8* %13)
  %15 = getelementptr inbounds [100 x i8], [100 x i8]* %6, i64 0, i64 0
  %16 = call i64 @strlen(i8* %15) #3
  %17 = trunc i64 %16 to i32
  store i32 %17, i32* %5, align 4
  %18 = getelementptr inbounds [100 x i8], [100 x i8]* %7, i64 0, i64 0
  %19 = call i64 @strlen(i8* %18) #3
  %20 = trunc i64 %19 to i32
  store i32 %20, i32* %4, align 4
  store i32 0, i32* %2, align 4
  br label %21

21:                                               ; preds = %169, %0
  %22 = load i32, i32* %2, align 4
  %23 = load i32, i32* %5, align 4
  %24 = sub nsw i32 %23, 1
  %25 = icmp sle i32 %22, %24
  br i1 %25, label %26, label %172

26:                                               ; preds = %21
  %27 = load i32, i32* %2, align 4
  %28 = icmp eq i32 %27, 0
  br i1 %28, label %29, label %78

29:                                               ; preds = %26
  %30 = getelementptr inbounds [100 x i8], [100 x i8]* %6, i64 0, i64 0
  %31 = load i8, i8* %30, align 16
  %32 = sext i8 %31 to i32
  %33 = getelementptr inbounds [100 x i8], [100 x i8]* %7, i64 0, i64 0
  %34 = load i8, i8* %33, align 16
  %35 = sext i8 %34 to i32
  %36 = icmp eq i32 %32, %35
  br i1 %36, label %37, label %78

37:                                               ; preds = %29
  store i32 1, i32* %3, align 4
  br label %38

38:                                               ; preds = %57, %37
  %39 = load i32, i32* %3, align 4
  %40 = load i32, i32* %4, align 4
  %41 = sub nsw i32 %40, 1
  %42 = icmp sle i32 %39, %41
  br i1 %42, label %43, label %60

43:                                               ; preds = %38
  %44 = load i32, i32* %3, align 4
  %45 = sext i32 %44 to i64
  %46 = getelementptr inbounds [100 x i8], [100 x i8]* %6, i64 0, i64 %45
  %47 = load i8, i8* %46, align 1
  %48 = sext i8 %47 to i32
  %49 = load i32, i32* %3, align 4
  %50 = sext i32 %49 to i64
  %51 = getelementptr inbounds [100 x i8], [100 x i8]* %7, i64 0, i64 %50
  %52 = load i8, i8* %51, align 1
  %53 = sext i8 %52 to i32
  %54 = icmp ne i32 %48, %53
  br i1 %54, label %55, label %56

55:                                               ; preds = %43
  br label %60

56:                                               ; preds = %43
  br label %57

57:                                               ; preds = %56
  %58 = load i32, i32* %3, align 4
  %59 = add nsw i32 %58, 1
  store i32 %59, i32* %3, align 4
  br label %38

60:                                               ; preds = %55, %38
  %61 = load i32, i32* %3, align 4
  %62 = load i32, i32* %4, align 4
  %63 = icmp eq i32 %61, %62
  br i1 %63, label %64, label %77

64:                                               ; preds = %60
  %65 = load i32, i32* %4, align 4
  %66 = sext i32 %65 to i64
  %67 = getelementptr inbounds [100 x i8], [100 x i8]* %6, i64 0, i64 %66
  %68 = load i8, i8* %67, align 1
  %69 = sext i8 %68 to i32
  %70 = icmp eq i32 %69, 32
  br i1 %70, label %71, label %77

71:                                               ; preds = %64
  %72 = getelementptr inbounds [100 x i8], [100 x i8]* %8, i64 0, i64 0
  %73 = call i32 (i8*, ...) @printf(i8* getelementptr inbounds ([3 x i8], [3 x i8]* @.str, i64 0, i64 0), i8* %72)
  %74 = load i32, i32* %2, align 4
  %75 = load i32, i32* %4, align 4
  %76 = add nsw i32 %74, %75
  store i32 %76, i32* %2, align 4
  br label %77

77:                                               ; preds = %71, %64, %60
  br label %78

78:                                               ; preds = %77, %29, %26
  %79 = load i32, i32* %2, align 4
  %80 = sext i32 %79 to i64
  %81 = getelementptr inbounds [100 x i8], [100 x i8]* %6, i64 0, i64 %80
  %82 = load i8, i8* %81, align 1
  %83 = sext i8 %82 to i32
  %84 = icmp eq i32 %83, 32
  br i1 %84, label %85, label %154

85:                                               ; preds = %78
  %86 = load i32, i32* %2, align 4
  %87 = add nsw i32 %86, 1
  %88 = sext i32 %87 to i64
  %89 = getelementptr inbounds [100 x i8], [100 x i8]* %6, i64 0, i64 %88
  %90 = load i8, i8* %89, align 1
  %91 = sext i8 %90 to i32
  %92 = getelementptr inbounds [100 x i8], [100 x i8]* %7, i64 0, i64 0
  %93 = load i8, i8* %92, align 16
  %94 = sext i8 %93 to i32
  %95 = icmp eq i32 %91, %94
  br i1 %95, label %96, label %154

96:                                               ; preds = %85
  store i32 1, i32* %3, align 4
  br label %97

97:                                               ; preds = %119, %96
  %98 = load i32, i32* %3, align 4
  %99 = load i32, i32* %4, align 4
  %100 = sub nsw i32 %99, 1
  %101 = icmp sle i32 %98, %100
  br i1 %101, label %102, label %122

102:                                              ; preds = %97
  %103 = load i32, i32* %2, align 4
  %104 = load i32, i32* %3, align 4
  %105 = add nsw i32 %103, %104
  %106 = add nsw i32 %105, 1
  %107 = sext i32 %106 to i64
  %108 = getelementptr inbounds [100 x i8], [100 x i8]* %6, i64 0, i64 %107
  %109 = load i8, i8* %108, align 1
  %110 = sext i8 %109 to i32
  %111 = load i32, i32* %3, align 4
  %112 = sext i32 %111 to i64
  %113 = getelementptr inbounds [100 x i8], [100 x i8]* %7, i64 0, i64 %112
  %114 = load i8, i8* %113, align 1
  %115 = sext i8 %114 to i32
  %116 = icmp ne i32 %110, %115
  br i1 %116, label %117, label %118

117:                                              ; preds = %102
  br label %122

118:                                              ; preds = %102
  br label %119

119:                                              ; preds = %118
  %120 = load i32, i32* %3, align 4
  %121 = add nsw i32 %120, 1
  store i32 %121, i32* %3, align 4
  br label %97

122:                                              ; preds = %117, %97
  %123 = load i32, i32* %3, align 4
  %124 = load i32, i32* %4, align 4
  %125 = icmp eq i32 %123, %124
  br i1 %125, label %126, label %153

126:                                              ; preds = %122
  %127 = load i32, i32* %2, align 4
  %128 = load i32, i32* %3, align 4
  %129 = add nsw i32 %127, %128
  %130 = add nsw i32 %129, 1
  %131 = sext i32 %130 to i64
  %132 = getelementptr inbounds [100 x i8], [100 x i8]* %6, i64 0, i64 %131
  %133 = load i8, i8* %132, align 1
  %134 = sext i8 %133 to i32
  %135 = icmp eq i32 %134, 32
  br i1 %135, label %146, label %136

136:                                              ; preds = %126
  %137 = load i32, i32* %2, align 4
  %138 = load i32, i32* %3, align 4
  %139 = add nsw i32 %137, %138
  %140 = add nsw i32 %139, 1
  %141 = sext i32 %140 to i64
  %142 = getelementptr inbounds [100 x i8], [100 x i8]* %6, i64 0, i64 %141
  %143 = load i8, i8* %142, align 1
  %144 = sext i8 %143 to i32
  %145 = icmp eq i32 %144, 0
  br i1 %145, label %146, label %153

146:                                              ; preds = %136, %126
  %147 = getelementptr inbounds [100 x i8], [100 x i8]* %8, i64 0, i64 0
  %148 = call i32 (i8*, ...) @printf(i8* getelementptr inbounds ([4 x i8], [4 x i8]* @.str.1, i64 0, i64 0), i8* %147)
  %149 = load i32, i32* %2, align 4
  %150 = load i32, i32* %4, align 4
  %151 = add nsw i32 %149, %150
  %152 = add nsw i32 %151, 1
  store i32 %152, i32* %2, align 4
  br label %153

153:                                              ; preds = %146, %136, %122
  br label %154

154:                                              ; preds = %153, %85, %78
  %155 = load i32, i32* %2, align 4
  %156 = sext i32 %155 to i64
  %157 = getelementptr inbounds [100 x i8], [100 x i8]* %6, i64 0, i64 %156
  %158 = load i8, i8* %157, align 1
  %159 = sext i8 %158 to i32
  %160 = icmp ne i32 %159, 0
  br i1 %160, label %161, label %168

161:                                              ; preds = %154
  %162 = load i32, i32* %2, align 4
  %163 = sext i32 %162 to i64
  %164 = getelementptr inbounds [100 x i8], [100 x i8]* %6, i64 0, i64 %163
  %165 = load i8, i8* %164, align 1
  %166 = sext i8 %165 to i32
  %167 = call i32 (i8*, ...) @printf(i8* getelementptr inbounds ([3 x i8], [3 x i8]* @.str.2, i64 0, i64 0), i32 %166)
  br label %168

168:                                              ; preds = %161, %154
  br label %169

169:                                              ; preds = %168
  %170 = load i32, i32* %2, align 4
  %171 = add nsw i32 %170, 1
  store i32 %171, i32* %2, align 4
  br label %21

172:                                              ; preds = %21
  %173 = load i32, i32* %1, align 4
  ret i32 %173
}

declare dso_local i32 @gets(...) #1

; Function Attrs: nounwind readonly
declare dso_local i64 @strlen(i8*) #2

declare dso_local i32 @printf(i8*, ...) #1


!llvm.module.flags = !{!0}
!llvm.ident = !{!1}

!0 = !{i32 1, !"wchar_size", i32 4}
!1 = !{!"clang version 10.0.0-4ubuntu1 "}
