; ModuleID = 'source-C-CXX/18/712.c'
source_filename = "source-C-CXX/18/712.c"
target datalayout = "e-m:e-p270:32:32-p271:32:32-p272:64:64-i64:64-f80:128-n8:16:32:64-S128"
target triple = "x86_64-pc-linux-gnu"

@.str = private unnamed_addr constant [3 x i8] c"%s\00", align 1
@.str.1 = private unnamed_addr constant [4 x i8] c" %s\00", align 1

; Function Attrs: nounwind sspstrong uwtable
define dso_local i32 @main() local_unnamed_addr #0 {
  %1 = alloca [100 x i8], align 16
  %2 = alloca [100 x i8], align 16
  %3 = alloca [100 x i8], align 16
  %4 = getelementptr inbounds [100 x i8], [100 x i8]* %1, i64 0, i64 0
  call void @llvm.lifetime.start.p0i8(i64 100, i8* nonnull %4) #6
  %5 = getelementptr inbounds [100 x i8], [100 x i8]* %2, i64 0, i64 0
  call void @llvm.lifetime.start.p0i8(i64 100, i8* nonnull %5) #6
  %6 = getelementptr inbounds [100 x i8], [100 x i8]* %3, i64 0, i64 0
  call void @llvm.lifetime.start.p0i8(i64 100, i8* nonnull %6) #6
  %7 = call i32 (i8*, ...) bitcast (i32 (...)* @gets to i32 (i8*, ...)*)(i8* nonnull %4) #6
  %8 = call i32 (i8*, ...) bitcast (i32 (...)* @gets to i32 (i8*, ...)*)(i8* nonnull %5) #6
  %9 = call i32 (i8*, ...) bitcast (i32 (...)* @gets to i32 (i8*, ...)*)(i8* nonnull %6) #6
  %10 = call i64 @strlen(i8* noundef nonnull %4) #7
  %11 = trunc i64 %10 to i32
  %12 = call i64 @strlen(i8* noundef nonnull %5) #7
  %13 = trunc i64 %12 to i32
  %14 = icmp sgt i32 %13, 1
  %15 = shl i64 %12, 32
  %16 = ashr exact i64 %15, 32
  %17 = getelementptr inbounds [100 x i8], [100 x i8]* %1, i64 0, i64 %16
  %18 = icmp sgt i32 %11, 0
  br i1 %18, label %19, label %103

19:                                               ; preds = %0
  %20 = and i64 %12, 4294967295
  %21 = and i64 %12, 4294967295
  br label %22

22:                                               ; preds = %19, %99
  %23 = phi i32 [ %101, %99 ], [ 0, %19 ]
  %24 = icmp eq i32 %23, 0
  br i1 %24, label %25, label %50

25:                                               ; preds = %22
  %26 = load i8, i8* %4, align 16, !tbaa !5
  %27 = load i8, i8* %5, align 16, !tbaa !5
  %28 = icmp eq i8 %26, %27
  br i1 %28, label %29, label %50

29:                                               ; preds = %25
  br i1 %14, label %30, label %42

30:                                               ; preds = %29, %37
  %31 = phi i64 [ %38, %37 ], [ 1, %29 ]
  %32 = getelementptr inbounds [100 x i8], [100 x i8]* %1, i64 0, i64 %31
  %33 = load i8, i8* %32, align 1, !tbaa !5
  %34 = getelementptr inbounds [100 x i8], [100 x i8]* %2, i64 0, i64 %31
  %35 = load i8, i8* %34, align 1, !tbaa !5
  %36 = icmp eq i8 %33, %35
  br i1 %36, label %37, label %40

37:                                               ; preds = %30
  %38 = add nuw nsw i64 %31, 1
  %39 = icmp eq i64 %38, %20
  br i1 %39, label %45, label %30, !llvm.loop !8

40:                                               ; preds = %30
  %41 = trunc i64 %31 to i32
  br label %42

42:                                               ; preds = %40, %29
  %43 = phi i32 [ 1, %29 ], [ %41, %40 ]
  %44 = icmp eq i32 %43, %13
  br i1 %44, label %45, label %50

45:                                               ; preds = %37, %42
  %46 = load i8, i8* %17, align 1, !tbaa !5
  %47 = icmp eq i8 %46, 32
  br i1 %47, label %48, label %50

48:                                               ; preds = %45
  %49 = call i32 (i8*, ...) @printf(i8* nonnull dereferenceable(1) getelementptr inbounds ([3 x i8], [3 x i8]* @.str, i64 0, i64 0), i8* nonnull %6)
  br label %50

50:                                               ; preds = %42, %45, %48, %25, %22
  %51 = phi i32 [ %13, %48 ], [ 0, %45 ], [ 0, %42 ], [ 0, %25 ], [ %23, %22 ]
  %52 = sext i32 %51 to i64
  %53 = getelementptr inbounds [100 x i8], [100 x i8]* %1, i64 0, i64 %52
  %54 = load i8, i8* %53, align 1, !tbaa !5
  %55 = icmp eq i8 %54, 32
  br i1 %55, label %56, label %90

56:                                               ; preds = %50
  %57 = add i32 %51, 1
  %58 = sext i32 %57 to i64
  %59 = getelementptr inbounds [100 x i8], [100 x i8]* %1, i64 0, i64 %58
  %60 = load i8, i8* %59, align 1, !tbaa !5
  %61 = load i8, i8* %5, align 16, !tbaa !5
  %62 = icmp eq i8 %60, %61
  br i1 %62, label %63, label %94

63:                                               ; preds = %56
  br i1 %14, label %64, label %79

64:                                               ; preds = %63, %74
  %65 = phi i64 [ %75, %74 ], [ 1, %63 ]
  %66 = trunc i64 %65 to i32
  %67 = add i32 %57, %66
  %68 = sext i32 %67 to i64
  %69 = getelementptr inbounds [100 x i8], [100 x i8]* %1, i64 0, i64 %68
  %70 = load i8, i8* %69, align 1, !tbaa !5
  %71 = getelementptr inbounds [100 x i8], [100 x i8]* %2, i64 0, i64 %65
  %72 = load i8, i8* %71, align 1, !tbaa !5
  %73 = icmp eq i8 %70, %72
  br i1 %73, label %74, label %77

74:                                               ; preds = %64
  %75 = add nuw nsw i64 %65, 1
  %76 = icmp eq i64 %75, %21
  br i1 %76, label %82, label %64, !llvm.loop !10

77:                                               ; preds = %64
  %78 = trunc i64 %65 to i32
  br label %79

79:                                               ; preds = %77, %63
  %80 = phi i32 [ 1, %63 ], [ %78, %77 ]
  %81 = icmp eq i32 %80, %13
  br i1 %81, label %82, label %94

82:                                               ; preds = %74, %79
  %83 = add i32 %57, %13
  %84 = sext i32 %83 to i64
  %85 = getelementptr inbounds [100 x i8], [100 x i8]* %1, i64 0, i64 %84
  %86 = load i8, i8* %85, align 1, !tbaa !5
  switch i8 %86, label %94 [
    i8 32, label %87
    i8 0, label %87
  ]

87:                                               ; preds = %82, %82
  %88 = call i32 (i8*, ...) @printf(i8* nonnull dereferenceable(1) getelementptr inbounds ([4 x i8], [4 x i8]* @.str.1, i64 0, i64 0), i8* nonnull %6)
  %89 = load i8, i8* %85, align 1, !tbaa !5
  br label %90

90:                                               ; preds = %87, %50
  %91 = phi i8 [ %89, %87 ], [ %54, %50 ]
  %92 = phi i32 [ %83, %87 ], [ %51, %50 ]
  %93 = icmp eq i8 %91, 0
  br i1 %93, label %99, label %94

94:                                               ; preds = %56, %79, %82, %90
  %95 = phi i32 [ %92, %90 ], [ %51, %82 ], [ %51, %79 ], [ %51, %56 ]
  %96 = phi i8 [ %91, %90 ], [ 32, %82 ], [ 32, %79 ], [ 32, %56 ]
  %97 = sext i8 %96 to i32
  %98 = call i32 @putchar(i32 %97)
  br label %99

99:                                               ; preds = %90, %94
  %100 = phi i32 [ %92, %90 ], [ %95, %94 ]
  %101 = add nsw i32 %100, 1
  %102 = icmp slt i32 %101, %11
  br i1 %102, label %22, label %103, !llvm.loop !11

103:                                              ; preds = %99, %0
  call void @llvm.lifetime.end.p0i8(i64 100, i8* nonnull %6) #6
  call void @llvm.lifetime.end.p0i8(i64 100, i8* nonnull %5) #6
  call void @llvm.lifetime.end.p0i8(i64 100, i8* nonnull %4) #6
  ret i32 0
}

; Function Attrs: argmemonly mustprogress nofree nosync nounwind willreturn
declare void @llvm.lifetime.start.p0i8(i64 immarg, i8* nocapture) #1

declare i32 @gets(...) local_unnamed_addr #2

; Function Attrs: argmemonly mustprogress nofree nounwind readonly willreturn
declare i64 @strlen(i8* nocapture) local_unnamed_addr #3

; Function Attrs: nofree nounwind
declare noundef i32 @printf(i8* nocapture noundef readonly, ...) local_unnamed_addr #4

; Function Attrs: argmemonly mustprogress nofree nosync nounwind willreturn
declare void @llvm.lifetime.end.p0i8(i64 immarg, i8* nocapture) #1

; Function Attrs: nofree nounwind
declare noundef i32 @putchar(i32 noundef) local_unnamed_addr #5


!llvm.module.flags = !{!0, !1, !2, !3}
!llvm.ident = !{!4}

!0 = !{i32 1, !"wchar_size", i32 4}
!1 = !{i32 7, !"PIC Level", i32 2}
!2 = !{i32 7, !"PIE Level", i32 2}
!3 = !{i32 7, !"uwtable", i32 1}
!4 = !{!"clang version 13.0.0"}
!5 = !{!6, !6, i64 0}
!6 = !{!"omnipotent char", !7, i64 0}
!7 = !{!"Simple C/C++ TBAA"}
!8 = distinct !{!8, !9}
!9 = !{!"llvm.loop.mustprogress"}
!10 = distinct !{!10, !9}
!11 = distinct !{!11, !9}
